target datalayout = "e-m:e-p270:32:32-p271:32:32-p272:64:64-i64:64-i128:128-f80:128-n8:16:32:64-S128"
target triple = "x86_64-pc-linux-gnu"

%struct.LZ4F_CustomMem = type { ptr, ptr, ptr, ptr }
%struct.LZ4F_CDict_s = type { %struct.LZ4F_CustomMem, ptr, ptr, ptr }

; Function Attrs: nounwind uwtable
define internal void @LZ4F_initStream(ptr noundef %0, ptr noundef %1, i32 noundef %2, i32 noundef %3) #0 {
  %5 = alloca ptr, align 8
  %6 = alloca ptr, align 8
  %7 = alloca i32, align 4
  %8 = alloca i32, align 4
  store ptr %0, ptr %5, align 8, !tbaa !12
  store ptr %1, ptr %6, align 8, !tbaa !25
  store i32 %2, ptr %7, align 4, !tbaa !10
  store i32 %3, ptr %8, align 4, !tbaa !10
  %9 = load i32, ptr %7, align 4, !tbaa !10
  %10 = icmp slt i32 %9, 2
  br i1 %10, label %11, label %28

11:                                               ; preds = %4
  %12 = load ptr, ptr %6, align 8, !tbaa !25
  %13 = icmp ne ptr %12, null
  br i1 %13, label %17, label %14

14:                                               ; preds = %11
  %15 = load i32, ptr %8, align 4, !tbaa !10
  %16 = icmp eq i32 %15, 0
  br i1 %16, label %17, label %27

17:                                               ; preds = %14, %11
  %18 = load ptr, ptr %5, align 8, !tbaa !12
  call void @LZ4_resetStream_fast(ptr noundef %18)
  %19 = load ptr, ptr %6, align 8, !tbaa !25
  %20 = icmp ne ptr %19, null
  br i1 %20, label %21, label %26

21:                                               ; preds = %17
  %22 = load ptr, ptr %5, align 8, !tbaa !12
  %23 = load ptr, ptr %6, align 8, !tbaa !25
  %24 = getelementptr inbounds nuw %struct.LZ4F_CDict_s, ptr %23, i32 0, i32 2
  %25 = load ptr, ptr %24, align 8, !tbaa !54
  call void @LZ4_attach_dictionary(ptr noundef %22, ptr noundef %25)
  br label %26

26:                                               ; preds = %21, %17
  br label %27

27:                                               ; preds = %26, %14
  br label %39

28:                                               ; preds = %4
  %29 = load ptr, ptr %5, align 8, !tbaa !12
  %30 = load i32, ptr %7, align 4, !tbaa !10
  call void @LZ4_resetStreamHC_fast(ptr noundef %29, i32 noundef %30)
  %31 = load ptr, ptr %6, align 8, !tbaa !25
  %32 = icmp ne ptr %31, null
  br i1 %32, label %33, label %38

33:                                               ; preds = %28
  %34 = load ptr, ptr %5, align 8, !tbaa !12
  %35 = load ptr, ptr %6, align 8, !tbaa !25
  %36 = getelementptr inbounds nuw %struct.LZ4F_CDict_s, ptr %35, i32 0, i32 3
  %37 = load ptr, ptr %36, align 8, !tbaa !55
  call void @LZ4_attach_HC_dictionary(ptr noundef %34, ptr noundef %37)
  br label %38

38:                                               ; preds = %33, %28
  br label %39

39:                                               ; preds = %38, %27
  ret void
}

; Function Attrs: nounwind uwtable
define internal i32 @LZ4F_compressBlockHC(ptr noundef %0, ptr noundef %1, ptr noundef %2, i32 noundef %3, i32 noundef %4, i32 noundef %5, ptr noundef %6) #0 {
  %8 = alloca i32, align 4
  %9 = alloca ptr, align 8
  %10 = alloca ptr, align 8
  %11 = alloca ptr, align 8
  %12 = alloca i32, align 4
  %13 = alloca i32, align 4
  %14 = alloca i32, align 4
  %15 = alloca ptr, align 8
  store ptr %0, ptr %9, align 8, !tbaa !12
  store ptr %1, ptr %10, align 8, !tbaa !7
  store ptr %2, ptr %11, align 8, !tbaa !7
  store i32 %3, ptr %12, align 4, !tbaa !10
  store i32 %4, ptr %13, align 4, !tbaa !10
  store i32 %5, ptr %14, align 4, !tbaa !10
  store ptr %6, ptr %15, align 8, !tbaa !25
  %16 = load ptr, ptr %9, align 8, !tbaa !12
  %17 = load ptr, ptr %15, align 8, !tbaa !25
  %18 = load i32, ptr %14, align 4, !tbaa !10
  call void @LZ4F_initStream(ptr noundef %16, ptr noundef %17, i32 noundef %18, i32 noundef 1)
  %19 = load ptr, ptr %15, align 8, !tbaa !25
  %20 = icmp ne ptr %19, null
  br i1 %20, label %21, label %28

21:                                               ; preds = %7
  %22 = load ptr, ptr %9, align 8, !tbaa !12
  %23 = load ptr, ptr %10, align 8, !tbaa !7
  %24 = load ptr, ptr %11, align 8, !tbaa !7
  %25 = load i32, ptr %12, align 4, !tbaa !10
  %26 = load i32, ptr %13, align 4, !tbaa !10
  %27 = call i32 @LZ4_compress_HC_continue(ptr noundef %22, ptr noundef %23, ptr noundef %24, i32 noundef %25, i32 noundef %26)
  store i32 %27, ptr %8, align 4
  br label %36

28:                                               ; preds = %7
  %29 = load ptr, ptr %9, align 8, !tbaa !12
  %30 = load ptr, ptr %10, align 8, !tbaa !7
  %31 = load ptr, ptr %11, align 8, !tbaa !7
  %32 = load i32, ptr %12, align 4, !tbaa !10
  %33 = load i32, ptr %13, align 4, !tbaa !10
  %34 = load i32, ptr %14, align 4, !tbaa !10
  %35 = call i32 @LZ4_compress_HC_extStateHC_fastReset(ptr noundef %29, ptr noundef %30, ptr noundef %31, i32 noundef %32, i32 noundef %33, i32 noundef %34)
  store i32 %35, ptr %8, align 4
  br label %36

36:                                               ; preds = %28, %21
  %37 = load i32, ptr %8, align 4
  ret i32 %37
}