; Function Attrs: nounwind uwtable
define internal i32 @LZ4F_compressBlockHC(ptr noundef %0, ptr noundef %1, ptr noundef %2, i32 noundef %3, i32 noundef %4, i32 noundef %5, ptr noundef readonly captures(address_is_null) %6) unnamed_addr #5 {
  %8 = icmp slt i32 %5, 2
  br i1 %8, label %9, label %13

9:                                                ; preds = %7
  %.not = icmp eq ptr %6, null
  br i1 %.not, label %18, label %10

10:                                               ; preds = %9
  tail call void @LZ4_resetStream_fast(ptr noundef %0) #13
  %11 = getelementptr inbounds nuw i8, ptr %6, i64 40
  %12 = load ptr, ptr %11, align 8, !tbaa !48
  tail call void @LZ4_attach_dictionary(ptr noundef %0, ptr noundef %12) #13
  br label %LZ4F_initStream.exit

13:                                               ; preds = %7
  tail call void @LZ4_resetStreamHC_fast(ptr noundef %0, i32 noundef %5) #13
  %.not.i = icmp eq ptr %6, null
  br i1 %.not.i, label %18, label %14

14:                                               ; preds = %13
  %15 = getelementptr inbounds nuw i8, ptr %6, i64 48
  %16 = load ptr, ptr %15, align 8, !tbaa !49
  tail call void @LZ4_attach_HC_dictionary(ptr noundef %0, ptr noundef %16) #13
  br label %LZ4F_initStream.exit

LZ4F_initStream.exit:                             ; preds = %14, %10
  %17 = tail call i32 @LZ4_compress_HC_continue(ptr noundef %0, ptr noundef %1, ptr noundef %2, i32 noundef %3, i32 noundef %4) #13
  br label %20

18:                                               ; preds = %9, %13
  %19 = tail call i32 @LZ4_compress_HC_extStateHC_fastReset(ptr noundef %0, ptr noundef %1, ptr noundef %2, i32 noundef %3, i32 noundef %4, i32 noundef %5) #13
  br label %20

20:                                               ; preds = %18, %LZ4F_initStream.exit
  %.0 = phi i32 [ %17, %LZ4F_initStream.exit ], [ %19, %18 ]
  ret i32 %.0
}